target datalayout = "e-m:e-p270:32:32-p271:32:32-p272:64:64-i64:64-i128:128-f80:128-n8:16:32:64-S128"
target triple = "x86_64-pc-linux-gnu"

; Function Attrs: inlinehint nounwind uwtable
define internal i32 @Abc_LitNot(i32 noundef %0) #2 {
  %2 = alloca i32, align 4
  store i32 %0, ptr %2, align 4, !tbaa !8
  %3 = load i32, ptr %2, align 4, !tbaa !8
  %4 = xor i32 %3, 1
  ret i32 %4
}

; Function Attrs: nounwind uwtable
define void @Wlc_BlastSubtract(ptr noundef %0, ptr noundef %1, ptr noundef %2, i32 noundef %3, i32 noundef %4) #0 {
  %6 = alloca ptr, align 8
  %7 = alloca ptr, align 8
  %8 = alloca ptr, align 8
  %9 = alloca i32, align 4
  %10 = alloca i32, align 4
  %11 = alloca i32, align 4
  store ptr %0, ptr %6, align 8, !tbaa !38
  store ptr %1, ptr %7, align 8, !tbaa !3
  store ptr %2, ptr %8, align 8, !tbaa !3
  store i32 %3, ptr %9, align 4, !tbaa !8
  store i32 %4, ptr %10, align 4, !tbaa !8
  call void @llvm.lifetime.start.p0(i64 4, ptr %11) #12
  store i32 0, ptr %11, align 4, !tbaa !8
  br label %12

12:                                               ; preds = %34, %5
  %13 = load i32, ptr %11, align 4, !tbaa !8
  %14 = load i32, ptr %9, align 4, !tbaa !8
  %15 = icmp slt i32 %13, %14
  br i1 %15, label %16, label %37

16:                                               ; preds = %12
  %17 = load ptr, ptr %6, align 8, !tbaa !38
  %18 = load ptr, ptr %7, align 8, !tbaa !3
  %19 = load i32, ptr %11, align 4, !tbaa !8
  %20 = sext i32 %19 to i64
  %21 = getelementptr inbounds i32, ptr %18, i64 %20
  %22 = load i32, ptr %21, align 4, !tbaa !8
  %23 = load ptr, ptr %8, align 8, !tbaa !3
  %24 = load i32, ptr %11, align 4, !tbaa !8
  %25 = sext i32 %24 to i64
  %26 = getelementptr inbounds i32, ptr %23, i64 %25
  %27 = load i32, ptr %26, align 4, !tbaa !8
  %28 = call i32 @Abc_LitNot(i32 noundef %27)
  %29 = load i32, ptr %10, align 4, !tbaa !8
  %30 = load ptr, ptr %7, align 8, !tbaa !3
  %31 = load i32, ptr %11, align 4, !tbaa !8
  %32 = sext i32 %31 to i64
  %33 = getelementptr inbounds i32, ptr %30, i64 %32
  call void @Wlc_BlastFullAdder(ptr noundef %17, i32 noundef %22, i32 noundef %28, i32 noundef %29, ptr noundef %10, ptr noundef %33)
  br label %34

34:                                               ; preds = %16
  %35 = load i32, ptr %11, align 4, !tbaa !8
  %36 = add nsw i32 %35, 1
  store i32 %36, ptr %11, align 4, !tbaa !8
  br label %12, !llvm.loop !77

37:                                               ; preds = %12
  call void @llvm.lifetime.end.p0(i64 4, ptr %11) #12
  ret void
}